target datalayout = "e-m:e-p270:32:32-p271:32:32-p272:64:64-i64:64-i128:128-f80:128-n8:16:32:64-S128"
target triple = "x86_64-pc-linux-gnu"

%"struct.Luau::EqSat::Id" = type { i32 }
%"struct.Luau::EqSat::Slice" = type { ptr, i64 }
%"struct.Luau::EqSat::Language" = type { %"class.Luau::Variant" }
%"class.Luau::Variant" = type { i32, [4 x i8], [48 x i8] }
%class.anon.678 = type { i8 }
%"class.Luau::VecDeque.332" = type { ptr, i64, i64, i64 }

; Function Attrs: mustprogress nounwind uwtable
define linkonce_odr dso_local noundef i64 @_ZNK4Luau8VecDequeINS_5EqSat2IdESaIS2_EE8capacityEv(ptr noundef nonnull align 8 dereferenceable(32) %0) #5 comdat align 2 {
  %2 = alloca ptr, align 8
  store ptr %0, ptr %2, align 8, !tbaa !528
  %3 = load ptr, ptr %2, align 8
  %4 = getelementptr inbounds nuw %"class.Luau::VecDeque.332", ptr %3, i32 0, i32 1
  %5 = load i64, ptr %4, align 8, !tbaa !719
  ret i64 %5
}

; Function Attrs: mustprogress nounwind uwtable
define linkonce_odr dso_local void @_ZN4Luau5EqSat5SliceIKNS0_2IdEEC2Ev(ptr noundef nonnull align 8 dereferenceable(16) %0) unnamed_addr #5 comdat align 2 {
  %2 = alloca ptr, align 8
  store ptr %0, ptr %2, align 8, !tbaa !48
  %3 = load ptr, ptr %2, align 8
  %4 = getelementptr inbounds nuw %"struct.Luau::EqSat::Slice", ptr %3, i32 0, i32 0
  store ptr null, ptr %4, align 8, !tbaa !50
  %5 = getelementptr inbounds nuw %"struct.Luau::EqSat::Slice", ptr %3, i32 0, i32 1
  store i64 0, ptr %5, align 8, !tbaa !52
  ret void
}

; Function Attrs: mustprogress nounwind uwtable
define linkonce_odr dso_local noundef i64 @_ZN4Luau8VecDequeINS_5EqSat2IdESaIS2_EE17logicalToPhysicalEm(ptr noundef nonnull align 8 dereferenceable(32) %0, i64 noundef %1) #5 comdat align 2 {
  %3 = alloca ptr, align 8
  %4 = alloca i64, align 8
  store ptr %0, ptr %3, align 8, !tbaa !528
  store i64 %1, ptr %4, align 8, !tbaa !38
  %5 = load ptr, ptr %3, align 8
  %6 = getelementptr inbounds nuw %"class.Luau::VecDeque.332", ptr %5, i32 0, i32 2
  %7 = load i64, ptr %6, align 8, !tbaa !720
  %8 = load i64, ptr %4, align 8, !tbaa !38
  %9 = add i64 %7, %8
  %10 = call noundef i64 @_ZNK4Luau8VecDequeINS_5EqSat2IdESaIS2_EE8capacityEv(ptr noundef nonnull align 8 dereferenceable(32) %5) #4
  %11 = urem i64 %9, %10
  ret i64 %11
}

; Function Attrs: mustprogress nounwind uwtable
define linkonce_odr dso_local noundef zeroext i1 @_ZN4Luau8VecDequeINS_5EqSat2IdESaIS2_EE7is_fullEv(ptr noundef nonnull align 8 dereferenceable(32) %0) #5 comdat align 2 {
  %2 = alloca ptr, align 8
  store ptr %0, ptr %2, align 8, !tbaa !528
  %3 = load ptr, ptr %2, align 8
  %4 = getelementptr inbounds nuw %"class.Luau::VecDeque.332", ptr %3, i32 0, i32 3
  %5 = load i64, ptr %4, align 8, !tbaa !530
  %6 = call noundef i64 @_ZNK4Luau8VecDequeINS_5EqSat2IdESaIS2_EE8capacityEv(ptr noundef nonnull align 8 dereferenceable(32) %3) #4
  %7 = icmp eq i64 %5, %6
  ret i1 %7
}

; Function Attrs: mustprogress uwtable
define linkonce_odr dso_local { ptr, i64 } @_ZN4Luau5visitIZNKS_5EqSat8LanguageIJNS_19EqSatSimplification4TNilENS3_8TBooleanENS3_7TNumberENS3_7TStringENS3_7TThreadENS3_12TTopFunctionENS3_9TTopTableENS3_9TTopClassENS3_7TBufferENS3_7TOpaqueENS3_8SBooleanENS3_7SStringENS3_9TFunctionENS3_6TTableENS3_14TImportedTableENS3_6TClassENS3_4TAnyENS3_6TErrorENS3_8TUnknownENS3_6TNeverENS3_5UnionENS3_12IntersectionENS3_8NegationENS3_8TTypeFunENS3_7InvalidENS3_9TNoRefineENS3_6TBoundEEE8operandsEvEUlOT_E_JS4_S5_S6_S7_S8_S9_SA_SB_SC_SD_SE_SF_SG_SH_SI_SJ_SK_SL_SM_SN_SO_SP_SQ_SR_SS_ST_SU_EEEDaSX_RKNS_7VariantIJDpT0_EEE(ptr noundef nonnull align 1 dereferenceable(1) %0, ptr noundef nonnull align 8 dereferenceable(56) %1) #6 comdat {
  %3 = alloca %"struct.Luau::EqSat::Slice", align 8
  %4 = alloca ptr, align 8
  %5 = alloca ptr, align 8
  %6 = alloca %"struct.Luau::EqSat::Slice", align 8
  store ptr %0, ptr %4, align 8, !tbaa !104
  store ptr %1, ptr %5, align 8, !tbaa !751
  call void @llvm.lifetime.start.p0(i64 16, ptr %6) #4
  call void @_ZN4Luau5EqSat5SliceIKNS0_2IdEEC2Ev(ptr noundef nonnull align 8 dereferenceable(16) %6)
  %7 = load ptr, ptr %5, align 8, !tbaa !751
  %8 = getelementptr inbounds nuw %"class.Luau::Variant", ptr %7, i32 0, i32 0
  %9 = load i32, ptr %8, align 8, !tbaa !753
  %10 = sext i32 %9 to i64
  %11 = getelementptr inbounds [27 x ptr], ptr @_ZZN4Luau5visitIZNKS_5EqSat8LanguageIJNS_19EqSatSimplification4TNilENS3_8TBooleanENS3_7TNumberENS3_7TStringENS3_7TThreadENS3_12TTopFunctionENS3_9TTopTableENS3_9TTopClassENS3_7TBufferENS3_7TOpaqueENS3_8SBooleanENS3_7SStringENS3_9TFunctionENS3_6TTableENS3_14TImportedTableENS3_6TClassENS3_4TAnyENS3_6TErrorENS3_8TUnknownENS3_6TNeverENS3_5UnionENS3_12IntersectionENS3_8NegationENS3_8TTypeFunENS3_7InvalidENS3_9TNoRefineENS3_6TBoundEEE8operandsEvEUlOT_E_JS4_S5_S6_S7_S8_S9_SA_SB_SC_SD_SE_SF_SG_SH_SI_SJ_SK_SL_SM_SN_SO_SP_SQ_SR_SS_ST_SU_EEEDaSX_RKNS_7VariantIJDpT0_EEEE10tableVisit_0, i64 0, i64 %10
  %12 = load ptr, ptr %11, align 8, !tbaa !104
  %13 = load ptr, ptr %4, align 8, !tbaa !104
  %14 = load ptr, ptr %5, align 8, !tbaa !751
  %15 = getelementptr inbounds nuw %"class.Luau::Variant", ptr %14, i32 0, i32 2
  call void %12(ptr noundef nonnull align 1 dereferenceable(1) %13, ptr noundef nonnull align 8 dereferenceable(16) %6, ptr noundef %15)
  call void @llvm.memcpy.p0.p0.i64(ptr align 8 %3, ptr align 8 %6, i64 16, i1 false), !tbaa.struct !585
  call void @llvm.lifetime.end.p0(i64 16, ptr %6) #4
  %16 = load { ptr, i64 }, ptr %3, align 8
  ret { ptr, i64 } %16
}

; Function Attrs: mustprogress uwtable
define linkonce_odr dso_local void @_ZN4Luau8VecDequeINS_5EqSat2IdESaIS2_EE9push_backERKS2_(ptr noundef nonnull align 8 dereferenceable(32) %0, ptr noundef nonnull align 4 dereferenceable(4) %1) #6 comdat align 2 {
  %3 = alloca ptr, align 8
  %4 = alloca ptr, align 8
  %5 = alloca i64, align 8
  store ptr %0, ptr %3, align 8, !tbaa !528
  store ptr %1, ptr %4, align 8, !tbaa !28
  %6 = load ptr, ptr %3, align 8
  %7 = call noundef zeroext i1 @_ZN4Luau8VecDequeINS_5EqSat2IdESaIS2_EE7is_fullEv(ptr noundef nonnull align 8 dereferenceable(32) %6)
  br i1 %7, label %8, label %9

8:                                                ; preds = %2
  call void @_ZN4Luau8VecDequeINS_5EqSat2IdESaIS2_EE4growEv(ptr noundef nonnull align 8 dereferenceable(32) %6)
  br label %9

9:                                                ; preds = %8, %2
  call void @llvm.lifetime.start.p0(i64 8, ptr %5) #4
  %10 = getelementptr inbounds nuw %"class.Luau::VecDeque.332", ptr %6, i32 0, i32 3
  %11 = load i64, ptr %10, align 8, !tbaa !530
  %12 = call noundef i64 @_ZN4Luau8VecDequeINS_5EqSat2IdESaIS2_EE17logicalToPhysicalEm(ptr noundef nonnull align 8 dereferenceable(32) %6, i64 noundef %11)
  store i64 %12, ptr %5, align 8, !tbaa !38
  %13 = getelementptr inbounds nuw %"class.Luau::VecDeque.332", ptr %6, i32 0, i32 0
  %14 = load ptr, ptr %13, align 8, !tbaa !532
  %15 = load i64, ptr %5, align 8, !tbaa !38
  %16 = getelementptr inbounds nuw %"struct.Luau::EqSat::Id", ptr %14, i64 %15
  %17 = load ptr, ptr %4, align 8, !tbaa !28
  call void @llvm.memcpy.p0.p0.i64(ptr align 4 %16, ptr align 4 %17, i64 4, i1 false), !tbaa.struct !47
  %18 = getelementptr inbounds nuw %"class.Luau::VecDeque.332", ptr %6, i32 0, i32 3
  %19 = load i64, ptr %18, align 8, !tbaa !530
  %20 = add i64 %19, 1
  store i64 %20, ptr %18, align 8, !tbaa !530
  call void @llvm.lifetime.end.p0(i64 8, ptr %5) #4
  ret void
}

; Function Attrs: mustprogress nounwind uwtable
define linkonce_odr dso_local noundef ptr @_ZNK4Luau5EqSat5SliceIKNS0_2IdEE3endEv(ptr noundef nonnull align 8 dereferenceable(16) %0) #5 comdat align 2 {
  %2 = alloca ptr, align 8
  store ptr %0, ptr %2, align 8, !tbaa !48
  %3 = load ptr, ptr %2, align 8
  %4 = getelementptr inbounds nuw %"struct.Luau::EqSat::Slice", ptr %3, i32 0, i32 0
  %5 = load ptr, ptr %4, align 8, !tbaa !50
  %6 = getelementptr inbounds nuw %"struct.Luau::EqSat::Slice", ptr %3, i32 0, i32 1
  %7 = load i64, ptr %6, align 8, !tbaa !52
  %8 = getelementptr inbounds nuw %"struct.Luau::EqSat::Id", ptr %5, i64 %7
  ret ptr %8
}

; Function Attrs: mustprogress nounwind uwtable
define linkonce_odr dso_local noundef ptr @_ZNK4Luau5EqSat5SliceIKNS0_2IdEE5beginEv(ptr noundef nonnull align 8 dereferenceable(16) %0) #5 comdat align 2 {
  %2 = alloca ptr, align 8
  store ptr %0, ptr %2, align 8, !tbaa !48
  %3 = load ptr, ptr %2, align 8
  %4 = getelementptr inbounds nuw %"struct.Luau::EqSat::Slice", ptr %3, i32 0, i32 0
  %5 = load ptr, ptr %4, align 8, !tbaa !50
  ret ptr %5
}

; Function Attrs: mustprogress nounwind uwtable
define linkonce_odr dso_local { ptr, i64 } @_ZNK4Luau5EqSat8LanguageIJNS_19EqSatSimplification4TNilENS2_8TBooleanENS2_7TNumberENS2_7TStringENS2_7TThreadENS2_12TTopFunctionENS2_9TTopTableENS2_9TTopClassENS2_7TBufferENS2_7TOpaqueENS2_8SBooleanENS2_7SStringENS2_9TFunctionENS2_6TTableENS2_14TImportedTableENS2_6TClassENS2_4TAnyENS2_6TErrorENS2_8TUnknownENS2_6TNeverENS2_5UnionENS2_12IntersectionENS2_8NegationENS2_8TTypeFunENS2_7InvalidENS2_9TNoRefineENS2_6TBoundEEE8operandsEv(ptr noundef nonnull align 8 dereferenceable(56) %0) #5 comdat align 2 personality ptr @__gxx_personality_v0 {
  %2 = alloca %"struct.Luau::EqSat::Slice", align 8
  %3 = alloca ptr, align 8
  %4 = alloca %class.anon.678, align 1
  store ptr %0, ptr %3, align 8, !tbaa !100
  %5 = load ptr, ptr %3, align 8
  call void @llvm.lifetime.start.p0(i64 1, ptr %4) #4
  %6 = getelementptr inbounds nuw %"struct.Luau::EqSat::Language", ptr %5, i32 0, i32 0
  %7 = invoke { ptr, i64 } @_ZN4Luau5visitIZNKS_5EqSat8LanguageIJNS_19EqSatSimplification4TNilENS3_8TBooleanENS3_7TNumberENS3_7TStringENS3_7TThreadENS3_12TTopFunctionENS3_9TTopTableENS3_9TTopClassENS3_7TBufferENS3_7TOpaqueENS3_8SBooleanENS3_7SStringENS3_9TFunctionENS3_6TTableENS3_14TImportedTableENS3_6TClassENS3_4TAnyENS3_6TErrorENS3_8TUnknownENS3_6TNeverENS3_5UnionENS3_12IntersectionENS3_8NegationENS3_8TTypeFunENS3_7InvalidENS3_9TNoRefineENS3_6TBoundEEE8operandsEvEUlOT_E_JS4_S5_S6_S7_S8_S9_SA_SB_SC_SD_SE_SF_SG_SH_SI_SJ_SK_SL_SM_SN_SO_SP_SQ_SR_SS_ST_SU_EEEDaSX_RKNS_7VariantIJDpT0_EEE(ptr noundef nonnull align 1 dereferenceable(1) %4, ptr noundef nonnull align 8 dereferenceable(56) %6)
          to label %8 unwind label %14

8:                                                ; preds = %1
  %9 = getelementptr inbounds nuw { ptr, i64 }, ptr %2, i32 0, i32 0
  %10 = extractvalue { ptr, i64 } %7, 0
  store ptr %10, ptr %9, align 8
  %11 = getelementptr inbounds nuw { ptr, i64 }, ptr %2, i32 0, i32 1
  %12 = extractvalue { ptr, i64 } %7, 1
  store i64 %12, ptr %11, align 8
  call void @llvm.lifetime.end.p0(i64 1, ptr %4) #4
  %13 = load { ptr, i64 }, ptr %2, align 8
  ret { ptr, i64 } %13

14:                                               ; preds = %1
  %15 = landingpad { ptr, i32 }
          catch ptr null
  %16 = extractvalue { ptr, i32 } %15, 0
  call void @__clang_call_terminate(ptr %16) #25
  unreachable
}

; Function Attrs: mustprogress uwtable
define dso_local void @_ZN4Luau19EqSatSimplification11addChildrenERKNS_5EqSat6EGraphINS1_8LanguageIJNS0_4TNilENS0_8TBooleanENS0_7TNumberENS0_7TStringENS0_7TThreadENS0_12TTopFunctionENS0_9TTopTableENS0_9TTopClassENS0_7TBufferENS0_7TOpaqueENS0_8SBooleanENS0_7SStringENS0_9TFunctionENS0_6TTableENS0_14TImportedTableENS0_6TClassENS0_4TAnyENS0_6TErrorENS0_8TUnknownENS0_6TNeverENS0_5UnionENS0_12IntersectionENS0_8NegationENS0_8TTypeFunENS0_7InvalidENS0_9TNoRefineENS0_6TBoundEEEENS0_8SimplifyEEEPKSV_RNS_8VecDequeINS1_2IdESaIS13_EEE(ptr noundef nonnull align 8 dereferenceable(192) %0, ptr noundef %1, ptr noundef nonnull align 8 dereferenceable(32) %2) #6 {
  %4 = alloca ptr, align 8
  %5 = alloca ptr, align 8
  %6 = alloca ptr, align 8
  %7 = alloca ptr, align 8
  %8 = alloca %"struct.Luau::EqSat::Slice", align 8
  %9 = alloca ptr, align 8
  %10 = alloca ptr, align 8
  %11 = alloca %"struct.Luau::EqSat::Id", align 4
  store ptr %0, ptr %4, align 8, !tbaa !98
  store ptr %1, ptr %5, align 8, !tbaa !100
  store ptr %2, ptr %6, align 8, !tbaa !528
  call void @llvm.lifetime.start.p0(i64 8, ptr %7) #4
  call void @llvm.lifetime.start.p0(i64 16, ptr %8) #4
  %12 = load ptr, ptr %5, align 8, !tbaa !100
  %13 = call { ptr, i64 } @_ZNK4Luau5EqSat8LanguageIJNS_19EqSatSimplification4TNilENS2_8TBooleanENS2_7TNumberENS2_7TStringENS2_7TThreadENS2_12TTopFunctionENS2_9TTopTableENS2_9TTopClassENS2_7TBufferENS2_7TOpaqueENS2_8SBooleanENS2_7SStringENS2_9TFunctionENS2_6TTableENS2_14TImportedTableENS2_6TClassENS2_4TAnyENS2_6TErrorENS2_8TUnknownENS2_6TNeverENS2_5UnionENS2_12IntersectionENS2_8NegationENS2_8TTypeFunENS2_7InvalidENS2_9TNoRefineENS2_6TBoundEEE8operandsEv(ptr noundef nonnull align 8 dereferenceable(56) %12) #4
  %14 = getelementptr inbounds nuw { ptr, i64 }, ptr %8, i32 0, i32 0
  %15 = extractvalue { ptr, i64 } %13, 0
  store ptr %15, ptr %14, align 8
  %16 = getelementptr inbounds nuw { ptr, i64 }, ptr %8, i32 0, i32 1
  %17 = extractvalue { ptr, i64 } %13, 1
  store i64 %17, ptr %16, align 8
  store ptr %8, ptr %7, align 8, !tbaa !48
  call void @llvm.lifetime.start.p0(i64 8, ptr %9) #4
  %18 = load ptr, ptr %7, align 8, !tbaa !48
  %19 = call noundef ptr @_ZNK4Luau5EqSat5SliceIKNS0_2IdEE5beginEv(ptr noundef nonnull align 8 dereferenceable(16) %18)
  store ptr %19, ptr %9, align 8, !tbaa !28
  call void @llvm.lifetime.start.p0(i64 8, ptr %10) #4
  %20 = load ptr, ptr %7, align 8, !tbaa !48
  %21 = call noundef ptr @_ZNK4Luau5EqSat5SliceIKNS0_2IdEE3endEv(ptr noundef nonnull align 8 dereferenceable(16) %20)
  store ptr %21, ptr %10, align 8, !tbaa !28
  br label %22

22:                                               ; preds = %30, %3
  %23 = load ptr, ptr %9, align 8, !tbaa !28
  %24 = load ptr, ptr %10, align 8, !tbaa !28
  %25 = icmp ne ptr %23, %24
  br i1 %25, label %27, label %26

26:                                               ; preds = %22
  call void @llvm.lifetime.end.p0(i64 8, ptr %10) #4
  call void @llvm.lifetime.end.p0(i64 8, ptr %9) #4
  call void @llvm.lifetime.end.p0(i64 16, ptr %8) #4
  call void @llvm.lifetime.end.p0(i64 8, ptr %7) #4
  br label %33

27:                                               ; preds = %22
  call void @llvm.lifetime.start.p0(i64 4, ptr %11) #4
  %28 = load ptr, ptr %9, align 8, !tbaa !28
  call void @llvm.memcpy.p0.p0.i64(ptr align 4 %11, ptr align 4 %28, i64 4, i1 false), !tbaa.struct !47
  %29 = load ptr, ptr %6, align 8, !tbaa !528
  call void @_ZN4Luau8VecDequeINS_5EqSat2IdESaIS2_EE9push_backERKS2_(ptr noundef nonnull align 8 dereferenceable(32) %29, ptr noundef nonnull align 4 dereferenceable(4) %11)
  call void @llvm.lifetime.end.p0(i64 4, ptr %11) #4
  br label %30

30:                                               ; preds = %27
  %31 = load ptr, ptr %9, align 8, !tbaa !28
  %32 = getelementptr inbounds nuw %"struct.Luau::EqSat::Id", ptr %31, i32 1
  store ptr %32, ptr %9, align 8, !tbaa !28
  br label %22

33:                                               ; preds = %26
  ret void
}