; Function Attrs: mustprogress uwtable
define dso_local void @_ZN4Luau19EqSatSimplification11addChildrenERKNS_5EqSat6EGraphINS1_8LanguageIJNS0_4TNilENS0_8TBooleanENS0_7TNumberENS0_7TStringENS0_7TThreadENS0_12TTopFunctionENS0_9TTopTableENS0_9TTopClassENS0_7TBufferENS0_7TOpaqueENS0_8SBooleanENS0_7SStringENS0_9TFunctionENS0_6TTableENS0_14TImportedTableENS0_6TClassENS0_4TAnyENS0_6TErrorENS0_8TUnknownENS0_6TNeverENS0_5UnionENS0_12IntersectionENS0_8NegationENS0_8TTypeFunENS0_7InvalidENS0_9TNoRefineENS0_6TBoundEEEENS0_8SimplifyEEEPKSV_RNS_8VecDequeINS1_2IdESaIS13_EEE(ptr noundef nonnull readnone align 8 captures(none) dereferenceable(192) %0, ptr noundef %1, ptr noundef nonnull align 8 dereferenceable(32) %2) local_unnamed_addr #5 personality ptr @__gxx_personality_v0 {
  %4 = alloca %"struct.Luau::EqSat::Slice", align 8
  %5 = alloca %class.anon.678, align 1
  call void @llvm.lifetime.start.p0(i64 1, ptr nonnull %5) #37
  call void @llvm.lifetime.start.p0(i64 16, ptr nonnull %4) #37
  call void @llvm.memset.p0.i64(ptr noundef nonnull align 8 dereferenceable(16) %4, i8 0, i64 16, i1 false)
  %6 = load i32, ptr %1, align 8, !tbaa !68
  %7 = sext i32 %6 to i64
  %8 = getelementptr inbounds [27 x ptr], ptr @_ZZN4Luau5visitIZNKS_5EqSat8LanguageIJNS_19EqSatSimplification4TNilENS3_8TBooleanENS3_7TNumberENS3_7TStringENS3_7TThreadENS3_12TTopFunctionENS3_9TTopTableENS3_9TTopClassENS3_7TBufferENS3_7TOpaqueENS3_8SBooleanENS3_7SStringENS3_9TFunctionENS3_6TTableENS3_14TImportedTableENS3_6TClassENS3_4TAnyENS3_6TErrorENS3_8TUnknownENS3_6TNeverENS3_5UnionENS3_12IntersectionENS3_8NegationENS3_8TTypeFunENS3_7InvalidENS3_9TNoRefineENS3_6TBoundEEE8operandsEvEUlOT_E_JS4_S5_S6_S7_S8_S9_SA_SB_SC_SD_SE_SF_SG_SH_SI_SJ_SK_SL_SM_SN_SO_SP_SQ_SR_SS_ST_SU_EEEDaSX_RKNS_7VariantIJDpT0_EEEE10tableVisit_0, i64 0, i64 %7
  %9 = load ptr, ptr %8, align 8, !tbaa !70
  %10 = getelementptr inbounds nuw i8, ptr %1, i64 8
  invoke void %9(ptr noundef nonnull align 1 dereferenceable(1) %5, ptr noundef nonnull align 8 dereferenceable(16) %4, ptr noundef nonnull %10)
          to label %_ZNK4Luau5EqSat8LanguageIJNS_19EqSatSimplification4TNilENS2_8TBooleanENS2_7TNumberENS2_7TStringENS2_7TThreadENS2_12TTopFunctionENS2_9TTopTableENS2_9TTopClassENS2_7TBufferENS2_7TOpaqueENS2_8SBooleanENS2_7SStringENS2_9TFunctionENS2_6TTableENS2_14TImportedTableENS2_6TClassENS2_4TAnyENS2_6TErrorENS2_8TUnknownENS2_6TNeverENS2_5UnionENS2_12IntersectionENS2_8NegationENS2_8TTypeFunENS2_7InvalidENS2_9TNoRefineENS2_6TBoundEEE8operandsEv.exit unwind label %11

11:                                               ; preds = %3
  %12 = landingpad { ptr, i32 }
          catch ptr null
  %13 = extractvalue { ptr, i32 } %12, 0
  call void @__clang_call_terminate(ptr %13) #38
  unreachable

_ZNK4Luau5EqSat8LanguageIJNS_19EqSatSimplification4TNilENS2_8TBooleanENS2_7TNumberENS2_7TStringENS2_7TThreadENS2_12TTopFunctionENS2_9TTopTableENS2_9TTopClassENS2_7TBufferENS2_7TOpaqueENS2_8SBooleanENS2_7SStringENS2_9TFunctionENS2_6TTableENS2_14TImportedTableENS2_6TClassENS2_4TAnyENS2_6TErrorENS2_8TUnknownENS2_6TNeverENS2_5UnionENS2_12IntersectionENS2_8NegationENS2_8TTypeFunENS2_7InvalidENS2_9TNoRefineENS2_6TBoundEEE8operandsEv.exit: ; preds = %3
  %.sroa.0.0.copyload.i.i = load ptr, ptr %4, align 8, !tbaa !26
  %.sroa.2.0..sroa_idx.i.i = getelementptr inbounds nuw i8, ptr %4, i64 8
  %.sroa.2.0.copyload.i.i = load i64, ptr %.sroa.2.0..sroa_idx.i.i, align 8, !tbaa !45
  call void @llvm.lifetime.end.p0(i64 16, ptr nonnull %4) #37
  call void @llvm.lifetime.end.p0(i64 1, ptr nonnull %5) #37
  %14 = getelementptr inbounds nuw %"struct.Luau::EqSat::Id", ptr %.sroa.0.0.copyload.i.i, i64 %.sroa.2.0.copyload.i.i
  %.not10 = icmp eq i64 %.sroa.2.0.copyload.i.i, 0
  br i1 %.not10, label %._crit_edge, label %.lr.ph

.lr.ph:                                           ; preds = %_ZNK4Luau5EqSat8LanguageIJNS_19EqSatSimplification4TNilENS2_8TBooleanENS2_7TNumberENS2_7TStringENS2_7TThreadENS2_12TTopFunctionENS2_9TTopTableENS2_9TTopClassENS2_7TBufferENS2_7TOpaqueENS2_8SBooleanENS2_7SStringENS2_9TFunctionENS2_6TTableENS2_14TImportedTableENS2_6TClassENS2_4TAnyENS2_6TErrorENS2_8TUnknownENS2_6TNeverENS2_5UnionENS2_12IntersectionENS2_8NegationENS2_8TTypeFunENS2_7InvalidENS2_9TNoRefineENS2_6TBoundEEE8operandsEv.exit
  %15 = getelementptr inbounds nuw i8, ptr %2, i64 24
  %16 = getelementptr inbounds nuw i8, ptr %2, i64 8
  %17 = getelementptr inbounds nuw i8, ptr %2, i64 16
  %.pre = load i64, ptr %15, align 8, !tbaa !539
  %.pre12 = load i64, ptr %16, align 8, !tbaa !541
  br label %18

._crit_edge:                                      ; preds = %_ZN4Luau8VecDequeINS_5EqSat2IdESaIS2_EE9push_backERKS2_.exit, %_ZNK4Luau5EqSat8LanguageIJNS_19EqSatSimplification4TNilENS2_8TBooleanENS2_7TNumberENS2_7TStringENS2_7TThreadENS2_12TTopFunctionENS2_9TTopTableENS2_9TTopClassENS2_7TBufferENS2_7TOpaqueENS2_8SBooleanENS2_7SStringENS2_9TFunctionENS2_6TTableENS2_14TImportedTableENS2_6TClassENS2_4TAnyENS2_6TErrorENS2_8TUnknownENS2_6TNeverENS2_5UnionENS2_12IntersectionENS2_8NegationENS2_8TTypeFunENS2_7InvalidENS2_9TNoRefineENS2_6TBoundEEE8operandsEv.exit
  ret void

18:                                               ; preds = %.lr.ph, %_ZN4Luau8VecDequeINS_5EqSat2IdESaIS2_EE9push_backERKS2_.exit
  %19 = phi i64 [ %.pre12, %.lr.ph ], [ %24, %_ZN4Luau8VecDequeINS_5EqSat2IdESaIS2_EE9push_backERKS2_.exit ]
  %20 = phi i64 [ %.pre, %.lr.ph ], [ %31, %_ZN4Luau8VecDequeINS_5EqSat2IdESaIS2_EE9push_backERKS2_.exit ]
  %.011 = phi ptr [ %.sroa.0.0.copyload.i.i, %.lr.ph ], [ %32, %_ZN4Luau8VecDequeINS_5EqSat2IdESaIS2_EE9push_backERKS2_.exit ]
  %21 = load i32, ptr %.011, align 4, !tbaa !4
  %22 = icmp eq i64 %20, %19
  br i1 %22, label %23, label %_ZN4Luau8VecDequeINS_5EqSat2IdESaIS2_EE9push_backERKS2_.exit

23:                                               ; preds = %18
  call void @_ZN4Luau8VecDequeINS_5EqSat2IdESaIS2_EE4growEv(ptr noundef nonnull align 8 dereferenceable(32) %2)
  %.pre.i = load i64, ptr %15, align 8, !tbaa !539
  %.pre2.i = load i64, ptr %16, align 8, !tbaa !541
  br label %_ZN4Luau8VecDequeINS_5EqSat2IdESaIS2_EE9push_backERKS2_.exit

_ZN4Luau8VecDequeINS_5EqSat2IdESaIS2_EE9push_backERKS2_.exit: ; preds = %18, %23
  %24 = phi i64 [ %.pre2.i, %23 ], [ %19, %18 ]
  %25 = phi i64 [ %.pre.i, %23 ], [ %20, %18 ]
  %26 = load i64, ptr %17, align 8, !tbaa !542
  %27 = add i64 %26, %25
  %28 = urem i64 %27, %24
  %29 = load ptr, ptr %2, align 8, !tbaa !543
  %30 = getelementptr inbounds nuw %"struct.Luau::EqSat::Id", ptr %29, i64 %28
  store i32 %21, ptr %30, align 4, !tbaa !4
  %31 = add i64 %25, 1
  store i64 %31, ptr %15, align 8, !tbaa !539
  %32 = getelementptr inbounds nuw i8, ptr %.011, i64 4
  %.not = icmp eq ptr %32, %14
  br i1 %.not, label %._crit_edge, label %18
}